target datalayout = "e-m:e-p270:32:32-p271:32:32-p272:64:64-i64:64-i128:128-f80:128-n8:16:32:64-S128"
target triple = "x86_64-pc-linux-gnu"

%struct.stat = type { i64, i64, i64, i32, i32, i32, i32, i64, i64, i64, i64, %struct.timespec, %struct.timespec, %struct.timespec, [3 x i64] }
%struct.timespec = type { i64, i64 }

@.str = private unnamed_addr constant [6 x i8] c"%s/%s\00", align 1
@.str.10 = private unnamed_addr constant [41 x i8] c"could not open file \22%s\22 for reading: %m\00", align 1
@.str.11 = private unnamed_addr constant [29 x i8] c"could not read file \22%s\22: %m\00", align 1
@.str.12 = private unnamed_addr constant [41 x i8] c"could not read file \22%s\22: read %d of %zu\00", align 1

; Function Attrs: nounwind uwtable
define dso_local ptr @slurpFile(ptr noundef %0, ptr noundef %1, ptr noundef %2) #0 {
  %4 = alloca ptr, align 8
  %5 = alloca ptr, align 8
  %6 = alloca ptr, align 8
  %7 = alloca i32, align 4
  %8 = alloca ptr, align 8
  %9 = alloca %struct.stat, align 8
  %10 = alloca [1024 x i8], align 16
  %11 = alloca i32, align 4
  %12 = alloca i32, align 4
  store ptr %0, ptr %4, align 8
  store ptr %1, ptr %5, align 8
  store ptr %2, ptr %6, align 8
  call void @llvm.lifetime.start.p0(i64 4, ptr %7) #7
  call void @llvm.lifetime.start.p0(i64 8, ptr %8) #7
  call void @llvm.lifetime.start.p0(i64 144, ptr %9) #7
  call void @llvm.lifetime.start.p0(i64 1024, ptr %10) #7
  call void @llvm.lifetime.start.p0(i64 4, ptr %11) #7
  call void @llvm.lifetime.start.p0(i64 4, ptr %12) #7
  %13 = getelementptr inbounds [1024 x i8], ptr %10, i64 0, i64 0
  %14 = load ptr, ptr %4, align 8
  %15 = load ptr, ptr %5, align 8
  %16 = call i32 (ptr, i64, ptr, ...) @pg_snprintf(ptr noundef %13, i64 noundef 1024, ptr noundef @.str, ptr noundef %14, ptr noundef %15)
  %17 = getelementptr inbounds [1024 x i8], ptr %10, i64 0, i64 0
  %18 = call i32 (ptr, i32, ...) @open(ptr noundef %17, i32 noundef 0, i32 noundef 0)
  store i32 %18, ptr %7, align 4
  %19 = icmp eq i32 %18, -1
  br i1 %19, label %20, label %25

20:                                               ; preds = %3
  br label %21

21:                                               ; preds = %20
  %22 = getelementptr inbounds [1024 x i8], ptr %10, i64 0, i64 0
  call void (i32, i32, ptr, ...) @pg_log_generic(i32 noundef 4, i32 noundef 0, ptr noundef @.str.10, ptr noundef %22)
  call void @exit(i32 noundef 1) #9
  unreachable

23:                                               ; No predecessors!
  br label %24

24:                                               ; preds = %23
  br label %25

25:                                               ; preds = %24, %3
  %26 = load i32, ptr %7, align 4
  %27 = call i32 @fstat(i32 noundef %26, ptr noundef %9) #7
  %28 = icmp slt i32 %27, 0
  br i1 %28, label %29, label %34

29:                                               ; preds = %25
  br label %30

30:                                               ; preds = %29
  %31 = getelementptr inbounds [1024 x i8], ptr %10, i64 0, i64 0
  call void (i32, i32, ptr, ...) @pg_log_generic(i32 noundef 4, i32 noundef 0, ptr noundef @.str.10, ptr noundef %31)
  call void @exit(i32 noundef 1) #9
  unreachable

32:                                               ; No predecessors!
  br label %33

33:                                               ; preds = %32
  br label %34

34:                                               ; preds = %33, %25
  %35 = getelementptr inbounds nuw %struct.stat, ptr %9, i32 0, i32 8
  %36 = load i64, ptr %35, align 8
  %37 = trunc i64 %36 to i32
  store i32 %37, ptr %11, align 4
  %38 = load i32, ptr %11, align 4
  %39 = add i32 %38, 1
  %40 = sext i32 %39 to i64
  %41 = call ptr @pg_malloc(i64 noundef %40)
  store ptr %41, ptr %8, align 8
  %42 = load i32, ptr %7, align 4
  %43 = load ptr, ptr %8, align 8
  %44 = load i32, ptr %11, align 4
  %45 = sext i32 %44 to i64
  %46 = call i64 @read(i32 noundef %42, ptr noundef %43, i64 noundef %45)
  %47 = trunc i64 %46 to i32
  store i32 %47, ptr %12, align 4
  %48 = load i32, ptr %12, align 4
  %49 = load i32, ptr %11, align 4
  %50 = icmp ne i32 %48, %49
  br i1 %50, label %51, label %68

51:                                               ; preds = %34
  %52 = load i32, ptr %12, align 4
  %53 = icmp slt i32 %52, 0
  br i1 %53, label %54, label %59

54:                                               ; preds = %51
  br label %55

55:                                               ; preds = %54
  %56 = getelementptr inbounds [1024 x i8], ptr %10, i64 0, i64 0
  call void (i32, i32, ptr, ...) @pg_log_generic(i32 noundef 4, i32 noundef 0, ptr noundef @.str.11, ptr noundef %56)
  call void @exit(i32 noundef 1) #9
  unreachable

57:                                               ; No predecessors!
  br label %58

58:                                               ; preds = %57
  br label %67

59:                                               ; preds = %51
  br label %60

60:                                               ; preds = %59
  %61 = getelementptr inbounds [1024 x i8], ptr %10, i64 0, i64 0
  %62 = load i32, ptr %12, align 4
  %63 = load i32, ptr %11, align 4
  %64 = sext i32 %63 to i64
  call void (i32, i32, ptr, ...) @pg_log_generic(i32 noundef 4, i32 noundef 0, ptr noundef @.str.12, ptr noundef %61, i32 noundef %62, i64 noundef %64)
  call void @exit(i32 noundef 1) #9
  unreachable

65:                                               ; No predecessors!
  br label %66

66:                                               ; preds = %65
  br label %67

67:                                               ; preds = %66, %58
  br label %68

68:                                               ; preds = %67, %34
  %69 = load i32, ptr %7, align 4
  %70 = call i32 @close(i32 noundef %69)
  %71 = load ptr, ptr %8, align 8
  %72 = load i32, ptr %11, align 4
  %73 = sext i32 %72 to i64
  %74 = getelementptr inbounds i8, ptr %71, i64 %73
  store i8 0, ptr %74, align 1
  %75 = load ptr, ptr %6, align 8
  %76 = icmp ne ptr %75, null
  br i1 %76, label %77, label %81

77:                                               ; preds = %68
  %78 = load i32, ptr %11, align 4
  %79 = sext i32 %78 to i64
  %80 = load ptr, ptr %6, align 8
  store i64 %79, ptr %80, align 8
  br label %81

81:                                               ; preds = %77, %68
  %82 = load ptr, ptr %8, align 8
  call void @llvm.lifetime.end.p0(i64 4, ptr %12) #7
  call void @llvm.lifetime.end.p0(i64 4, ptr %11) #7
  call void @llvm.lifetime.end.p0(i64 1024, ptr %10) #7
  call void @llvm.lifetime.end.p0(i64 144, ptr %9) #7
  call void @llvm.lifetime.end.p0(i64 8, ptr %8) #7
  call void @llvm.lifetime.end.p0(i64 4, ptr %7) #7
  ret ptr %82
}