; Function Attrs: nounwind uwtable
define dso_local noundef ptr @slurpFile(ptr noundef %0, ptr noundef %1, ptr noundef writeonly captures(address_is_null) %2) local_unnamed_addr #0 {
  %4 = alloca %struct.stat, align 8
  %5 = alloca [1024 x i8], align 16
  call void @llvm.lifetime.start.p0(i64 144, ptr nonnull %4) #11
  call void @llvm.lifetime.start.p0(i64 1024, ptr nonnull %5) #11
  %6 = call i32 (ptr, i64, ptr, ...) @pg_snprintf(ptr noundef nonnull %5, i64 noundef 1024, ptr noundef nonnull @.str, ptr noundef %0, ptr noundef %1) #11
  %7 = call i32 (ptr, i32, ...) @open(ptr noundef nonnull %5, i32 noundef 0, i32 noundef 0) #11
  %8 = icmp eq i32 %7, -1
  br i1 %8, label %9, label %10

9:                                                ; preds = %3
  call void (i32, i32, ptr, ...) @pg_log_generic(i32 noundef 4, i32 noundef 0, ptr noundef nonnull @.str.10, ptr noundef nonnull %5) #11
  call void @exit(i32 noundef 1) #12
  unreachable

10:                                               ; preds = %3
  %11 = call i32 @fstat(i32 noundef %7, ptr noundef nonnull %4) #11
  %12 = icmp slt i32 %11, 0
  br i1 %12, label %13, label %14

13:                                               ; preds = %10
  call void (i32, i32, ptr, ...) @pg_log_generic(i32 noundef 4, i32 noundef 0, ptr noundef nonnull @.str.10, ptr noundef nonnull %5) #11
  call void @exit(i32 noundef 1) #12
  unreachable

14:                                               ; preds = %10
  %15 = getelementptr inbounds nuw i8, ptr %4, i64 48
  %16 = load i64, ptr %15, align 8
  %17 = trunc i64 %16 to i32
  %18 = shl i64 %16, 32
  %sext = add i64 %18, 4294967296
  %19 = ashr exact i64 %sext, 32
  %20 = call ptr @pg_malloc(i64 noundef %19) #11
  %21 = ashr exact i64 %18, 32
  %22 = call i64 @read(i32 noundef %7, ptr noundef %20, i64 noundef %21) #11
  %23 = trunc i64 %22 to i32
  %.not = icmp eq i32 %23, %17
  br i1 %.not, label %28, label %24

24:                                               ; preds = %14
  %25 = icmp slt i32 %23, 0
  br i1 %25, label %26, label %27

26:                                               ; preds = %24
  call void (i32, i32, ptr, ...) @pg_log_generic(i32 noundef 4, i32 noundef 0, ptr noundef nonnull @.str.11, ptr noundef nonnull %5) #11
  call void @exit(i32 noundef 1) #12
  unreachable

27:                                               ; preds = %24
  call void (i32, i32, ptr, ...) @pg_log_generic(i32 noundef 4, i32 noundef 0, ptr noundef nonnull @.str.12, ptr noundef nonnull %5, i32 noundef %23, i64 noundef %21) #11
  call void @exit(i32 noundef 1) #12
  unreachable

28:                                               ; preds = %14
  %29 = call i32 @close(i32 noundef %7) #11
  %30 = getelementptr inbounds i8, ptr %20, i64 %21
  store i8 0, ptr %30, align 1
  %.not21 = icmp eq ptr %2, null
  br i1 %.not21, label %32, label %31

31:                                               ; preds = %28
  store i64 %21, ptr %2, align 8
  br label %32

32:                                               ; preds = %31, %28
  call void @llvm.lifetime.end.p0(i64 1024, ptr nonnull %5) #11
  call void @llvm.lifetime.end.p0(i64 144, ptr nonnull %4) #11
  ret ptr %20
}